Certificate:
    Data:
        Version: 3 (0x2)
        Serial Number: 1 (0x1)
        Signature Algorithm: sha256WithRSAEncryption
        Issuer: C=CN, ST=mykey, L=mykey, O=mykey, OU=mykey, CN=localhost
        Validity
            Not Before: Jul 20 12:10:28 2021 GMT
            Not After : Jul 20 12:10:28 2031 GMT
        Subject: C=CN, ST=mykey, L=mykey, O=mykey, OU=mykey, CN=pa.com
        Subject Public Key Info:
            Public Key Algorithm: rsaEncryption
                RSA Public-Key: (2048 bit)
                Modulus:
                    00:b6:db:05:31:6f:5d:7a:4d:17:76:5e:ac:26:2b:
                    e5:e1:2f:08:04:2d:ff:20:b2:c5:b3:01:0a:22:7d:
                    64:20:3e:3b:35:ef:a1:37:55:29:3c:7b:ee:f0:83:
                    e9:7d:78:bd:8f:38:59:a9:e7:59:b4:9f:d6:ba:b0:
                    a9:60:3e:24:9e:70:a9:af:ad:e3:ad:64:64:9a:02:
                    a3:30:3b:69:d6:18:a6:57:73:de:dd:30:f7:cd:3f:
                    2b:2e:47:af:3f:cf:5c:8c:af:7b:cf:71:4b:e9:6b:
                    57:27:2e:88:d8:39:c6:50:f6:6c:df:4d:3f:e1:d5:
                    d3:4a:0d:cc:f3:5b:18:24:12:0c:22:e2:71:ea:da:
                    c9:92:80:d8:d8:cc:f7:2b:0e:f8:86:ea:c3:10:5e:
                    86:f2:33:da:62:4f:98:fb:f0:ce:67:49:5c:9b:c4:
                    b9:ed:1e:ed:ce:08:58:09:31:be:7d:d0:4d:34:46:
                    2b:89:bc:ae:c6:aa:48:70:80:70:b7:8f:28:5f:2a:
                    50:6f:6c:2b:70:46:02:e4:37:83:bc:07:02:3c:f8:
                    47:09:92:33:81:35:65:35:d2:78:77:85:1e:ce:94:
                    87:23:63:cc:a1:a8:12:07:10:5f:7b:b7:c6:17:f7:
                    b1:7f:80:83:6a:0f:ea:77:1f:59:0a:45:8a:fb:5e:
                    7e:3d
                Exponent: 65537 (0x10001)
        X509v3 extensions:
            X509v3 Basic Constraints: 
                CA:FALSE
            Netscape Comment: 
                OpenSSL Generated Certificate
            X509v3 Subject Key Identifier: 
                C8:7A:AB:B8:CD:27:13:4C:44:61:29:91:35:78:FE:6D:DA:B8:E9:4B
            X509v3 Authority Key Identifier: 
                keyid:73:7D:80:69:7B:07:39:0E:F0:DD:60:03:89:0B:1B:DB:FB:47:36:26

    Signature Algorithm: sha256WithRSAEncryption
         1e:1a:b6:97:92:ec:a0:e3:86:35:00:93:c8:7b:2d:71:c3:af:
         9a:fe:f1:64:cf:59:fc:e9:75:5b:b5:b6:47:17:2c:72:7d:be:
         71:fb:a3:c1:7d:f6:1b:bf:f4:94:8d:39:3e:72:66:1e:d9:22:
         66:57:12:5e:9b:99:d1:05:33:7a:b2:b7:51:6c:ce:fc:86:47:
         90:e9:2c:72:21:d4:a1:a6:c7:b3:1b:31:ce:2e:9f:8a:cf:ba:
         66:a9:cb:1a:d4:99:d5:5d:f3:c7:10:21:11:05:5c:bb:35:c6:
         15:d0:ca:58:d6:cb:75:02:76:30:4e:58:ef:18:5e:4a:05:9e:
         71:08:c0:c1:52:16:71:a0:81:f5:a6:a2:cd:e3:76:d0:21:b8:
         31:94:5f:a5:67:be:26:74:7d:a3:78:7b:49:12:7a:96:6c:f4:
         19:83:5c:c8:5d:66:64:91:c9:eb:07:1f:f8:f5:0a:b2:40:c7:
         ea:48:2e:e2:f3:77:f7:41:b4:29:58:f1:cb:37:8c:6c:3c:57:
         9c:d8:42:7b:10:8e:e4:f8:9a:22:61:d0:28:0d:75:20:51:df:
         97:22:eb:e8:56:34:b1:c0:34:19:30:2a:31:94:22:87:ce:95:
         ac:96:5e:73:c0:ae:1a:ad:d1:94:5e:b2:b1:dc:58:7a:dc:be:
         5c:c6:da:92
-----BEGIN CERTIFICATE-----
MIIDtTCCAp2gAwIBAgIBATANBgkqhkiG9w0BAQsFADBhMQswCQYDVQQGEwJDTjEO
MAwGA1UECAwFbXlrZXkxDjAMBgNVBAcMBW15a2V5MQ4wDAYDVQQKDAVteWtleTEO
MAwGA1UECwwFbXlrZXkxEjAQBgNVBAMMCWxvY2FsaG9zdDAeFw0yMTA3MjAxMjEw
MjhaFw0zMTA3MjAxMjEwMjhaMF4xCzAJBgNVBAYTAkNOMQ4wDAYDVQQIDAVteWtl
eTEOMAwGA1UEBwwFbXlrZXkxDjAMBgNVBAoMBW15a2V5MQ4wDAYDVQQLDAVteWtl
eTEPMA0GA1UEAwwGcGEuY29tMIIBIjANBgkqhkiG9w0BAQEFAAOCAQ8AMIIBCgKC
AQEAttsFMW9dek0Xdl6sJivl4S8IBC3/ILLFswEKIn1kID47Ne+hN1UpPHvu8IPp
fXi9jzhZqedZtJ/WurCpYD4knnCpr63jrWRkmgKjMDtp1himV3Pe3TD3zT8rLkev
P89cjK97z3FL6WtXJy6I2DnGUPZs300/4dXTSg3M81sYJBIMIuJx6trJkoDY2Mz3
Kw74hurDEF6G8jPaYk+Y+/DOZ0lcm8S57R7tzghYCTG+fdBNNEYribyuxqpIcIBw
t48oXypQb2wrcEYC5DeDvAcCPPhHCZIzgTVlNdJ4d4UezpSHI2PMoagSBxBfe7fG
F/exf4CDag/qdx9ZCkWK+15+PQIDAQABo3sweTAJBgNVHRMEAjAAMCwGCWCGSAGG
+EIBDQQfFh1PcGVuU1NMIEdlbmVyYXRlZCBDZXJ0aWZpY2F0ZTAdBgNVHQ4EFgQU
yHqruM0nE0xEYSmRNXj+bdq46UswHwYDVR0jBBgwFoAUc32AaXsHOQ7w3WADiQsb
2/tHNiYwDQYJKoZIhvcNAQELBQADggEBAB4atpeS7KDjhjUAk8h7LXHDr5r+8WTP
WfzpdVu1tkcXLHJ9vnH7o8F99hu/9JSNOT5yZh7ZImZXEl6bmdEFM3qyt1FszvyG
R5DpLHIh1KGmx7MbMc4un4rPumapyxrUmdVd88cQIREFXLs1xhXQyljWy3UCdjBO
WO8YXkoFnnEIwMFSFnGggfWmos3jdtAhuDGUX6VnviZ0faN4e0kSepZs9BmDXMhd
ZmSRyesHH/j1CrJAx+pILuLzd/dBtClY8cs3jGw8V5zYQnsQjuT4miJh0CgNdSBR
35ci6+hWNLHANBkwKjGUIofOlayWXnPArhqt0ZResrHcWHrcvlzG2pI=
-----END CERTIFICATE-----
